target datalayout = "e-m:e-p270:32:32-p271:32:32-p272:64:64-i64:64-i128:128-f80:128-n8:16:32:64-S128"
target triple = "x86_64-pc-linux-gnu"

%struct.WOLFSSL = type <{ ptr, ptr, ptr, ptr, [48 x i8], [48 x i8], ptr, ptr, ptr, ptr, ptr, ptr, ptr, ptr, ptr, ptr, ptr, ptr, ptr, i32, [4 x i8], %struct.WOLFSSL_CIPHER, ptr, %struct.Ciphers, %struct.Ciphers, [8 x i8], %struct.Buffers, ptr, ptr, %struct.WOLFSSL_ALERT_HISTORY, %struct.WOLFSSL_ALERT, i32, i32, i32, i32, i32, i32, i32, i16, [2 x i8], i32, i8, %struct.RecordLayerHeader, %struct.MsgsReceived, %struct.ProtocolVersion, %struct.ProtocolVersion, %struct.CipherSpecs, [2 x i8], %struct.Keys, %struct.Options, ptr, i8, i8, i16, [10 x i16], i8, i8, i16, i16, [38 x i8], i32, i32, [4 x i8], ptr, i8, i8, [6 x i8], ptr, ptr, i16, i8, i8, i32, i8, [3 x i8], i32, %struct.OneTimeAuth, ptr }>
%struct.WOLFSSL_CIPHER = type { i8, i8, ptr }
%struct.Ciphers = type { ptr, ptr, ptr, ptr, i8, i8 }
%struct.Buffers = type { %struct.bufferStatic, %struct.bufferStatic, %struct.WOLFSSL_BUFFER_INFO, %struct.WOLFSSL_BUFFER_INFO, %struct.WOLFSSL_BUFFER_INFO, %struct.WOLFSSL_BUFFER_INFO, i32, i32, i8, i8, i8, i8, %struct.WOLFSSL_BUFFER_INFO, %struct.WOLFSSL_BUFFER_INFO, %struct.WOLFSSL_BUFFER_INFO, %struct.WOLFSSL_BUFFER_INFO, ptr, ptr, ptr, i8, i8, i32, i32, ptr, i32, [1 x ptr] }
%struct.bufferStatic = type { [5 x i8], ptr, i32, i32, i32, i8, i8 }
%struct.WOLFSSL_BUFFER_INFO = type { ptr, i32 }
%struct.WOLFSSL_ALERT_HISTORY = type { %struct.WOLFSSL_ALERT, %struct.WOLFSSL_ALERT }
%struct.WOLFSSL_ALERT = type { i32, i32 }
%struct.RecordLayerHeader = type { i8, i8, i8, [2 x i8] }
%struct.MsgsReceived = type { i32 }
%struct.ProtocolVersion = type { i8, i8 }
%struct.CipherSpecs = type { i16, i16, i16, i16, i8, i8, i8, i8, i8, i8, i8, i8 }
%struct.Keys = type { [64 x i8], [64 x i8], [32 x i8], [32 x i8], [16 x i8], [16 x i8], [8 x i8], [12 x i8], [12 x i8], i32, i32, i32, i32, i32, i32, i8, i8, i8, i8 }
%struct.Options = type { i64, i64, i8, i8, i8, i8, i8, i8, i8, i8, i8, i8, i8, i8, i8, i8, i8, i8, i8, i8, i8, i8, i8, i16, i16, i16, i16, i16, i8 }
%struct.OneTimeAuth = type { ptr, i8 }

; Function Attrs: inlinehint nounwind uwtable
define internal void @ato16(ptr noundef %0, ptr noundef %1) #5 {
  %3 = alloca ptr, align 8
  %4 = alloca ptr, align 8
  store ptr %0, ptr %3, align 8, !tbaa !8
  store ptr %1, ptr %4, align 8, !tbaa !122
  %5 = load ptr, ptr %3, align 8, !tbaa !8
  %6 = getelementptr inbounds i8, ptr %5, i64 0
  %7 = load i8, ptr %6, align 1, !tbaa !55
  %8 = zext i8 %7 to i32
  %9 = shl i32 %8, 8
  %10 = load ptr, ptr %3, align 8, !tbaa !8
  %11 = getelementptr inbounds i8, ptr %10, i64 1
  %12 = load i8, ptr %11, align 1, !tbaa !55
  %13 = zext i8 %12 to i32
  %14 = or i32 %9, %13
  %15 = trunc i32 %14 to i16
  %16 = load ptr, ptr %4, align 8, !tbaa !122
  store i16 %15, ptr %16, align 2, !tbaa !73
  ret void
}

; Function Attrs: nounwind uwtable
define internal i32 @TLSX_SignatureAlgorithmsCert_Parse(ptr noundef %0, ptr noundef %1, i16 noundef zeroext %2, i8 noundef zeroext %3) #0 {
  %5 = alloca i32, align 4
  %6 = alloca ptr, align 8
  %7 = alloca ptr, align 8
  %8 = alloca i16, align 2
  %9 = alloca i8, align 1
  %10 = alloca i16, align 2
  %11 = alloca i32, align 4
  store ptr %0, ptr %6, align 8, !tbaa !3
  store ptr %1, ptr %7, align 8, !tbaa !8
  store i16 %2, ptr %8, align 2, !tbaa !73
  store i8 %3, ptr %9, align 1, !tbaa !55
  call void @llvm.lifetime.start.p0(i64 2, ptr %10) #8
  %12 = load i8, ptr %9, align 1, !tbaa !55
  %13 = icmp ne i8 %12, 0
  br i1 %13, label %15, label %14

14:                                               ; preds = %4
  store i32 -328, ptr %5, align 4
  store i32 1, ptr %11, align 4
  br label %60

15:                                               ; preds = %4
  %16 = load i16, ptr %8, align 2, !tbaa !73
  %17 = zext i16 %16 to i32
  %18 = icmp slt i32 %17, 4
  br i1 %18, label %24, label %19

19:                                               ; preds = %15
  %20 = load i16, ptr %8, align 2, !tbaa !73
  %21 = zext i16 %20 to i32
  %22 = and i32 %21, 1
  %23 = icmp ne i32 %22, 0
  br i1 %23, label %24, label %25

24:                                               ; preds = %19, %15
  store i32 -328, ptr %5, align 4
  store i32 1, ptr %11, align 4
  br label %60

25:                                               ; preds = %19
  %26 = load ptr, ptr %7, align 8, !tbaa !8
  call void @ato16(ptr noundef %26, ptr noundef %10)
  %27 = load ptr, ptr %7, align 8, !tbaa !8
  %28 = getelementptr inbounds i8, ptr %27, i64 2
  store ptr %28, ptr %7, align 8, !tbaa !8
  %29 = load i16, ptr %8, align 2, !tbaa !73
  %30 = zext i16 %29 to i32
  %31 = load i16, ptr %10, align 2, !tbaa !73
  %32 = zext i16 %31 to i32
  %33 = add nsw i32 2, %32
  %34 = icmp ne i32 %30, %33
  br i1 %34, label %35, label %36

35:                                               ; preds = %25
  store i32 -328, ptr %5, align 4
  store i32 1, ptr %11, align 4
  br label %60

36:                                               ; preds = %25
  %37 = load i16, ptr %10, align 2, !tbaa !73
  %38 = load ptr, ptr %6, align 8, !tbaa !3
  %39 = getelementptr inbounds nuw %struct.WOLFSSL, ptr %38, i32 0, i32 58
  store i16 %37, ptr %39, align 4, !tbaa !211
  %40 = load ptr, ptr %6, align 8, !tbaa !3
  %41 = getelementptr inbounds nuw %struct.WOLFSSL, ptr %40, i32 0, i32 58
  %42 = load i16, ptr %41, align 4, !tbaa !211
  %43 = zext i16 %42 to i32
  %44 = icmp sgt i32 %43, 38
  br i1 %44, label %45, label %51

45:                                               ; preds = %36
  br label %46

46:                                               ; preds = %45
  br label %47

47:                                               ; preds = %46
  br label %48

48:                                               ; preds = %47
  %49 = load ptr, ptr %6, align 8, !tbaa !3
  %50 = getelementptr inbounds nuw %struct.WOLFSSL, ptr %49, i32 0, i32 58
  store i16 38, ptr %50, align 4, !tbaa !211
  br label %51

51:                                               ; preds = %48, %36
  %52 = load ptr, ptr %6, align 8, !tbaa !3
  %53 = getelementptr inbounds nuw %struct.WOLFSSL, ptr %52, i32 0, i32 59
  %54 = getelementptr inbounds [38 x i8], ptr %53, i64 0, i64 0
  %55 = load ptr, ptr %7, align 8, !tbaa !8
  %56 = load ptr, ptr %6, align 8, !tbaa !3
  %57 = getelementptr inbounds nuw %struct.WOLFSSL, ptr %56, i32 0, i32 58
  %58 = load i16, ptr %57, align 4, !tbaa !211
  %59 = zext i16 %58 to i64
  call void @llvm.memcpy.p0.p0.i64(ptr align 2 %54, ptr align 1 %55, i64 %59, i1 false)
  store i32 0, ptr %5, align 4
  store i32 1, ptr %11, align 4
  br label %60

60:                                               ; preds = %51, %35, %24, %14
  call void @llvm.lifetime.end.p0(i64 2, ptr %10) #8
  %61 = load i32, ptr %5, align 4
  ret i32 %61
}