; Function Attrs: mustprogress nofree norecurse nosync nounwind willreturn memory(argmem: readwrite) uwtable
define internal fastcc range(i32 -328, 1) i32 @TLSX_SignatureAlgorithmsCert_Parse(ptr noundef nonnull writeonly captures(none) %0, ptr noundef nonnull readonly captures(none) %1, i16 noundef zeroext %2, i8 noundef zeroext range(i8 0, 2) %3) unnamed_addr #14 {
  %.not = icmp eq i8 %3, 0
  br i1 %.not, label %22, label %5

5:                                                ; preds = %4
  %6 = zext i16 %2 to i32
  %7 = icmp ugt i16 %2, 3
  %8 = and i32 %6, 1
  %.not13 = icmp eq i32 %8, 0
  %or.cond = and i1 %7, %.not13
  br i1 %or.cond, label %9, label %22

9:                                                ; preds = %5
  %.val = load i8, ptr %1, align 1, !tbaa !51
  %10 = getelementptr i8, ptr %1, i64 1
  %.val15 = load i8, ptr %10, align 1, !tbaa !51
  %11 = zext i8 %.val to i16
  %12 = shl nuw i16 %11, 8
  %13 = zext i8 %.val15 to i16
  %14 = or disjoint i16 %12, %13
  %15 = zext i16 %14 to i32
  %16 = add nuw nsw i32 %15, 2
  %.not14 = icmp eq i32 %16, %6
  br i1 %.not14, label %17, label %22

17:                                               ; preds = %9
  %18 = getelementptr inbounds nuw i8, ptr %1, i64 2
  %19 = getelementptr inbounds nuw i8, ptr %0, i64 1108
  %spec.select = tail call i16 @llvm.umin.i16(i16 %14, i16 38)
  store i16 %spec.select, ptr %19, align 4, !tbaa !182
  %20 = getelementptr inbounds nuw i8, ptr %0, i64 1110
  %21 = zext nneg i16 %spec.select to i64
  tail call void @llvm.memcpy.p0.p0.i64(ptr nonnull align 2 %20, ptr nonnull align 1 %18, i64 %21, i1 false)
  br label %22

22:                                               ; preds = %9, %5, %4, %17
  %.0 = phi i32 [ 0, %17 ], [ -328, %4 ], [ -328, %5 ], [ -328, %9 ]
  ret i32 %.0
}